Certificate:
    Data:
        Version: 3 (0x2)
        Serial Number:
            d2:6c:68:f2:f1:8d:30:3a
        Signature Algorithm: sha1WithRSAEncryption
        Issuer: C=PT, O=Universidade do Minho, OU=HASLab, CN=CA de SSI
        Validity
            Not Before: Mar  9 11:18:49 2015 GMT
            Not After : Mar  8 11:18:49 2018 GMT
        Subject: C=PT, O=Universidade do Minho, OU=HASLab, CN=CA de SSI
        Subject Public Key Info:
            Public Key Algorithm: rsaEncryption
            RSA Public Key: (1024 bit)
                Modulus (1024 bit):
                    00:b3:51:01:3b:96:8a:77:1a:02:ed:fd:5f:61:c6:
                    4e:cb:07:7e:7a:f5:20:44:cb:e1:94:f7:96:35:2e:
                    70:7f:10:bf:4b:69:6a:2b:d8:55:35:9c:bb:c2:cd:
                    4e:d8:1b:eb:98:ea:c1:30:56:ab:18:7c:91:b8:07:
                    46:47:34:26:7e:10:0e:08:22:a0:dc:16:2e:5d:1e:
                    9a:58:a1:dd:51:05:98:97:a2:8c:e0:08:53:8b:cf:
                    21:ae:a5:3f:ad:09:f1:97:55:30:50:35:08:2b:b4:
                    19:1e:db:ed:3f:2d:86:72:06:bf:65:9a:62:25:01:
                    2a:eb:1d:5e:df:63:7e:7f:f1
                Exponent: 65537 (0x10001)
        X509v3 extensions:
            X509v3 Subject Key Identifier: 
                8F:A0:8E:92:C7:65:94:B8:39:4D:32:B3:6A:64:E7:98:74:F8:71:B0
            X509v3 Authority Key Identifier: 
                keyid:8F:A0:8E:92:C7:65:94:B8:39:4D:32:B3:6A:64:E7:98:74:F8:71:B0
                DirName:/C=PT/O=Universidade do Minho/OU=HASLab/CN=CA de SSI
                serial:D2:6C:68:F2:F1:8D:30:3A

            X509v3 Basic Constraints: 
                CA:TRUE
    Signature Algorithm: sha1WithRSAEncryption
        28:1e:d9:e6:e9:79:99:91:d6:eb:78:9f:36:b6:ef:85:35:92:
        d9:a9:96:ef:bf:ba:1c:52:e6:29:46:09:e2:14:0c:78:df:7d:
        4b:66:43:a0:40:bc:a1:a0:78:a9:8a:4c:f1:7c:fc:7f:a7:81:
        49:9d:b6:73:9f:ea:8a:50:04:2d:36:db:94:5f:70:0d:1f:1c:
        06:40:35:8e:c9:e6:df:10:19:9f:85:85:4f:e4:9f:ee:7e:0a:
        36:be:a5:44:48:4a:9c:11:3c:65:4c:0f:67:5c:ea:94:74:6b:
        70:6c:e7:ef:ae:5b:d6:80:1a:10:1a:bc:5e:fb:4a:38:f4:6f:
        b2:80
-----BEGIN CERTIFICATE-----
MIIC2DCCAkGgAwIBAgIJANJsaPLxjTA6MA0GCSqGSIb3DQEBBQUAMFIxCzAJBgNV
BAYTAlBUMR4wHAYDVQQKExVVbml2ZXJzaWRhZGUgZG8gTWluaG8xDzANBgNVBAsT
BkhBU0xhYjESMBAGA1UEAxMJQ0EgZGUgU1NJMB4XDTE1MDMwOTExMTg0OVoXDTE4
MDMwODExMTg0OVowUjELMAkGA1UEBhMCUFQxHjAcBgNVBAoTFVVuaXZlcnNpZGFk
ZSBkbyBNaW5obzEPMA0GA1UECxMGSEFTTGFiMRIwEAYDVQQDEwlDQSBkZSBTU0kw
gZ8wDQYJKoZIhvcNAQEBBQADgY0AMIGJAoGBALNRATuWincaAu39X2HGTssHfnr1
IETL4ZT3ljUucH8Qv0tpaivYVTWcu8LNTtgb65jqwTBWqxh8kbgHRkc0Jn4QDggi
oNwWLl0emlih3VEFmJeijOAIU4vPIa6lP60J8ZdVMFA1CCu0GR7b7T8thnIGv2Wa
YiUBKusdXt9jfn/xAgMBAAGjgbUwgbIwHQYDVR0OBBYEFI+gjpLHZZS4OU0ys2pk
55h0+HGwMIGCBgNVHSMEezB5gBSPoI6Sx2WUuDlNMrNqZOeYdPhxsKFWpFQwUjEL
MAkGA1UEBhMCUFQxHjAcBgNVBAoTFVVuaXZlcnNpZGFkZSBkbyBNaW5obzEPMA0G
A1UECxMGSEFTTGFiMRIwEAYDVQQDEwlDQSBkZSBTU0mCCQDSbGjy8Y0wOjAMBgNV
HRMEBTADAQH/MA0GCSqGSIb3DQEBBQUAA4GBACge2ebpeZmR1ut4nza274U1ktmp
lu+/uhxS5ilGCeIUDHjffUtmQ6BAvKGgeKmKTPF8/H+ngUmdtnOf6opQBC0225Rf
cA0fHAZANY7J5t8QGZ+FhU/kn+5+Cja+pURISpwRPGVMD2dc6pR0a3Bs5++uW9aA
GhAavF77Sjj0b7KA
-----END CERTIFICATE-----
