Certificate:
    Data:
        Version: 3 (0x2)
        Serial Number:
            d2:6c:68:f2:f1:8d:30:3c
        Signature Algorithm: sha1WithRSAEncryption
        Issuer: C=PT, O=Universidade do Minho, OU=HASLab, CN=CA de SSI
        Validity
            Not Before: Mar  9 11:23:54 2015 GMT
            Not After : Mar  8 11:23:54 2016 GMT
        Subject: C=PT, O=Universidade do Minho, OU=HASLab, CN=client
        Subject Public Key Info:
            Public Key Algorithm: rsaEncryption
            RSA Public Key: (1024 bit)
                Modulus (1024 bit):
                    00:cc:72:fb:4f:2d:d2:7f:30:9c:1c:ef:29:31:a8:
                    a2:01:3b:97:65:23:a5:09:bc:05:73:9c:d6:e5:f0:
                    51:63:54:e9:09:0b:15:be:64:63:e8:84:f5:c4:93:
                    e5:76:7a:3f:90:da:f2:9b:23:f2:b5:58:54:3e:9d:
                    3d:24:b0:05:a4:d7:58:3b:0d:86:82:dd:44:0f:dc:
                    bd:b7:cf:d5:57:07:98:e5:cc:89:17:1c:20:bb:4c:
                    60:6e:8d:d0:5f:b9:18:e8:18:aa:0f:de:33:e8:8d:
                    e1:33:41:01:91:a0:9a:4b:44:b7:fa:27:00:cb:0c:
                    36:85:6a:b4:5a:7c:fb:10:17
                Exponent: 65537 (0x10001)
        X509v3 extensions:
            X509v3 Basic Constraints: 
                CA:FALSE
            Netscape Comment: 
                OpenSSL Generated Certificate
            X509v3 Subject Key Identifier: 
                EA:A5:CA:15:F5:AC:08:1F:3D:77:FC:F5:FF:96:20:3C:D1:C3:FC:B9
            X509v3 Authority Key Identifier: 
                keyid:8F:A0:8E:92:C7:65:94:B8:39:4D:32:B3:6A:64:E7:98:74:F8:71:B0

    Signature Algorithm: sha1WithRSAEncryption
        83:32:7c:03:c8:93:e2:36:a9:08:6d:5e:7a:21:af:2f:f4:85:
        ea:05:01:33:ea:34:ad:b2:56:0d:33:6c:ec:00:da:c0:b8:24:
        68:e8:bf:ef:0a:0a:80:2c:99:3f:c7:10:05:a2:51:50:3b:62:
        7f:dd:7a:d0:e6:6a:62:12:59:34:2a:11:a1:14:c9:45:2a:b4:
        0d:4f:23:81:61:88:f0:cf:b4:52:cb:1a:f7:80:a4:f7:03:e6:
        aa:09:7b:5f:a2:0a:fb:09:7c:8a:9c:46:cf:3c:e9:6a:1a:ec:
        61:a4:f0:db:70:ee:6c:80:ac:2f:0c:9f:92:44:5f:87:7b:4e:
        31:31
-----BEGIN CERTIFICATE-----
MIICmjCCAgOgAwIBAgIJANJsaPLxjTA8MA0GCSqGSIb3DQEBBQUAMFIxCzAJBgNV
BAYTAlBUMR4wHAYDVQQKExVVbml2ZXJzaWRhZGUgZG8gTWluaG8xDzANBgNVBAsT
BkhBU0xhYjESMBAGA1UEAxMJQ0EgZGUgU1NJMB4XDTE1MDMwOTExMjM1NFoXDTE2
MDMwODExMjM1NFowTzELMAkGA1UEBhMCUFQxHjAcBgNVBAoTFVVuaXZlcnNpZGFk
ZSBkbyBNaW5obzEPMA0GA1UECxMGSEFTTGFiMQ8wDQYDVQQDEwZjbGllbnQwgZ8w
DQYJKoZIhvcNAQEBBQADgY0AMIGJAoGBAMxy+08t0n8wnBzvKTGoogE7l2UjpQm8
BXOc1uXwUWNU6QkLFb5kY+iE9cST5XZ6P5Da8psj8rVYVD6dPSSwBaTXWDsNhoLd
RA/cvbfP1VcHmOXMiRccILtMYG6N0F+5GOgYqg/eM+iN4TNBAZGgmktEt/onAMsM
NoVqtFp8+xAXAgMBAAGjezB5MAkGA1UdEwQCMAAwLAYJYIZIAYb4QgENBB8WHU9w
ZW5TU0wgR2VuZXJhdGVkIENlcnRpZmljYXRlMB0GA1UdDgQWBBTqpcoV9awIHz13
/PX/liA80cP8uTAfBgNVHSMEGDAWgBSPoI6Sx2WUuDlNMrNqZOeYdPhxsDANBgkq
hkiG9w0BAQUFAAOBgQCDMnwDyJPiNqkIbV56Ia8v9IXqBQEz6jStslYNM2zsANrA
uCRo6L/vCgqALJk/xxAFolFQO2J/3XrQ5mpiElk0KhGhFMlFKrQNTyOBYYjwz7RS
yxr3gKT3A+aqCXtfogr7CXyKnEbPPOlqGuxhpPDbcO5sgKwvDJ+SRF+He04xMQ==
-----END CERTIFICATE-----
