Certificate:
    Data:
        Version: 3 (0x2)
        Serial Number:
            d2:6c:68:f2:f1:8d:30:3b
        Signature Algorithm: sha1WithRSAEncryption
        Issuer: C=PT, O=Universidade do Minho, OU=HASLab, CN=CA de SSI
        Validity
            Not Before: Mar  9 11:21:17 2015 GMT
            Not After : Mar  8 11:21:17 2016 GMT
        Subject: C=PT, O=Universidade do Minho, OU=HASLab, CN=Server
        Subject Public Key Info:
            Public Key Algorithm: rsaEncryption
            RSA Public Key: (1024 bit)
                Modulus (1024 bit):
                    00:af:c1:41:94:b7:8b:79:e1:57:a1:a0:67:49:46:
                    71:64:8b:21:3d:90:af:f3:26:32:3c:cd:60:14:67:
                    26:99:23:c5:f6:4b:07:25:d9:06:85:60:27:9a:b1:
                    a0:d0:99:e5:1e:25:23:b9:4e:35:76:a5:2d:7b:27:
                    18:7b:f3:1c:af:75:6c:da:6c:7c:5f:ae:38:be:61:
                    ce:57:10:cc:28:48:f5:62:cf:1a:ab:0a:79:db:84:
                    5b:43:a7:18:5c:0b:41:b9:37:53:08:3d:a4:98:8b:
                    0e:51:91:25:15:13:c9:5e:63:44:4f:e6:b8:e7:91:
                    0e:76:c6:0a:af:43:1a:80:63
                Exponent: 65537 (0x10001)
        X509v3 extensions:
            X509v3 Basic Constraints: 
                CA:FALSE
            Netscape Comment: 
                OpenSSL Generated Certificate
            X509v3 Subject Key Identifier: 
                CA:70:14:4E:15:D8:75:6F:03:3A:93:47:F9:DF:64:73:09:79:2B:91
            X509v3 Authority Key Identifier: 
                keyid:8F:A0:8E:92:C7:65:94:B8:39:4D:32:B3:6A:64:E7:98:74:F8:71:B0

    Signature Algorithm: sha1WithRSAEncryption
        53:4b:8f:63:af:1b:8d:c5:e2:ca:d1:d7:45:90:c3:2d:f8:58:
        23:75:49:75:3d:71:cf:c8:ce:14:7e:39:f4:aa:99:d0:ad:c6:
        5e:4e:19:0a:00:3a:df:6e:4d:2f:6a:44:d2:f1:3a:9c:3f:c3:
        e7:cd:e0:86:4d:1d:97:3b:b3:de:ae:ba:4a:d0:88:35:35:c4:
        43:4d:87:58:64:b4:8e:92:f4:ca:f5:d3:b2:74:75:09:70:e4:
        36:61:3f:01:b7:dd:c7:a0:40:70:e6:90:b4:6b:ff:59:c2:a1:
        90:fc:84:7b:17:25:f8:fe:96:c3:2f:61:ba:9c:42:16:c5:b5:
        3e:1d
-----BEGIN CERTIFICATE-----
MIICmjCCAgOgAwIBAgIJANJsaPLxjTA7MA0GCSqGSIb3DQEBBQUAMFIxCzAJBgNV
BAYTAlBUMR4wHAYDVQQKExVVbml2ZXJzaWRhZGUgZG8gTWluaG8xDzANBgNVBAsT
BkhBU0xhYjESMBAGA1UEAxMJQ0EgZGUgU1NJMB4XDTE1MDMwOTExMjExN1oXDTE2
MDMwODExMjExN1owTzELMAkGA1UEBhMCUFQxHjAcBgNVBAoTFVVuaXZlcnNpZGFk
ZSBkbyBNaW5obzEPMA0GA1UECxMGSEFTTGFiMQ8wDQYDVQQDEwZTZXJ2ZXIwgZ8w
DQYJKoZIhvcNAQEBBQADgY0AMIGJAoGBAK/BQZS3i3nhV6GgZ0lGcWSLIT2Qr/Mm
MjzNYBRnJpkjxfZLByXZBoVgJ5qxoNCZ5R4lI7lONXalLXsnGHvzHK91bNpsfF+u
OL5hzlcQzChI9WLPGqsKeduEW0OnGFwLQbk3Uwg9pJiLDlGRJRUTyV5jRE/muOeR
DnbGCq9DGoBjAgMBAAGjezB5MAkGA1UdEwQCMAAwLAYJYIZIAYb4QgENBB8WHU9w
ZW5TU0wgR2VuZXJhdGVkIENlcnRpZmljYXRlMB0GA1UdDgQWBBTKcBROFdh1bwM6
k0f532RzCXkrkTAfBgNVHSMEGDAWgBSPoI6Sx2WUuDlNMrNqZOeYdPhxsDANBgkq
hkiG9w0BAQUFAAOBgQBTS49jrxuNxeLK0ddFkMMt+FgjdUl1PXHPyM4Ufjn0qpnQ
rcZeThkKADrfbk0vakTS8TqcP8PnzeCGTR2XO7PerrpK0Ig1NcRDTYdYZLSOkvTK
9dOydHUJcOQ2YT8Bt93HoEBw5pC0a/9ZwqGQ/IR7FyX4/pbDL2G6nEIWxbU+HQ==
-----END CERTIFICATE-----
